; ModuleID = 'source-C-CXX/11/1447.cpp'
source_filename = "source-C-CXX/11/1447.cpp"
target datalayout = "e-m:e-p270:32:32-p271:32:32-p272:64:64-i64:64-f80:128-n8:16:32:64-S128"
target triple = "x86_64-pc-linux-gnu"

%"class.std::ios_base::Init" = type { i8 }
%"class.std::basic_istream" = type { i32 (...)**, i64, %"class.std::basic_ios" }
%"class.std::basic_ios" = type { %"class.std::ios_base", %"class.std::basic_ostream"*, i8, i8, %"class.std::basic_streambuf"*, %"class.std::ctype"*, %"class.std::num_put"*, %"class.std::num_get"* }
%"class.std::ios_base" = type { i32 (...)**, i64, i64, i32, i32, i32, %"struct.std::ios_base::_Callback_list"*, %"struct.std::ios_base::_Words", [8 x %"struct.std::ios_base::_Words"], i32, %"struct.std::ios_base::_Words"*, %"class.std::locale" }
%"struct.std::ios_base::_Callback_list" = type { %"struct.std::ios_base::_Callback_list"*, void (i32, %"class.std::ios_base"*, i32)*, i32, i32 }
%"struct.std::ios_base::_Words" = type { i8*, i64 }
%"class.std::locale" = type { %"class.std::locale::_Impl"* }
%"class.std::locale::_Impl" = type { i32, %"class.std::locale::facet"**, i64, %"class.std::locale::facet"**, i8** }
%"class.std::locale::facet" = type <{ i32 (...)**, i32, [4 x i8] }>
%"class.std::basic_ostream" = type { i32 (...)**, %"class.std::basic_ios" }
%"class.std::basic_streambuf" = type { i32 (...)**, i8*, i8*, i8*, i8*, i8*, i8*, %"class.std::locale" }
%"class.std::ctype" = type <{ %"class.std::locale::facet.base", [4 x i8], %struct.__locale_struct*, i8, [7 x i8], i32*, i32*, i16*, i8, [256 x i8], [256 x i8], i8, [6 x i8] }>
%"class.std::locale::facet.base" = type <{ i32 (...)**, i32 }>
%struct.__locale_struct = type { [13 x %struct.__locale_data*], i16*, i32*, i32*, [13 x i8*] }
%struct.__locale_data = type opaque
%"class.std::num_put" = type { %"class.std::locale::facet.base", [4 x i8] }
%"class.std::num_get" = type { %"class.std::locale::facet.base", [4 x i8] }

@_ZStL8__ioinit = internal global %"class.std::ios_base::Init" zeroinitializer, align 1
@__dso_handle = external hidden global i8
@_ZSt3cin = external global %"class.std::basic_istream", align 8
@_ZSt4cout = external global %"class.std::basic_ostream", align 8
@llvm.global_ctors = appending global [1 x { i32, void ()*, i8* }] [{ i32, void ()*, i8* } { i32 65535, void ()* @_GLOBAL__sub_I_1447.cpp, i8* null }]

declare void @_ZNSt8ios_base4InitC1Ev(%"class.std::ios_base::Init"* nonnull align 1 dereferenceable(1)) unnamed_addr #0

; Function Attrs: nounwind
declare void @_ZNSt8ios_base4InitD1Ev(%"class.std::ios_base::Init"* nonnull align 1 dereferenceable(1)) unnamed_addr #1

; Function Attrs: nofree nounwind
declare i32 @__cxa_atexit(void (i8*)*, i8*, i8*) local_unnamed_addr #2

; Function Attrs: mustprogress norecurse sspstrong uwtable
define dso_local i32 @main() local_unnamed_addr #3 {
  %1 = alloca [15 x i32], align 16
  %2 = bitcast [15 x i32]* %1 to i8*
  call void @llvm.lifetime.start.p0i8(i64 60, i8* nonnull %2) #8
  %3 = getelementptr inbounds [15 x i32], [15 x i32]* %1, i64 0, i64 0
  %4 = getelementptr inbounds [15 x i32], [15 x i32]* %1, i64 0, i64 1
  %5 = call nonnull align 8 dereferenceable(16) %"class.std::basic_istream"* @_ZNSirsERi(%"class.std::basic_istream"* nonnull align 8 dereferenceable(16) @_ZSt3cin, i32* nonnull align 4 dereferenceable(4) %3)
  %6 = bitcast %"class.std::basic_istream"* %5 to i8**
  %7 = load i8*, i8** %6, align 8, !tbaa !5
  %8 = getelementptr i8, i8* %7, i64 -24
  %9 = bitcast i8* %8 to i64*
  %10 = load i64, i64* %9, align 8
  %11 = bitcast %"class.std::basic_istream"* %5 to i8*
  %12 = add nsw i64 %10, 32
  %13 = getelementptr inbounds i8, i8* %11, i64 %12
  %14 = bitcast i8* %13 to i32*
  %15 = load i32, i32* %14, align 8, !tbaa !8
  %16 = and i32 %15, 5
  %17 = icmp ne i32 %16, 0
  %18 = load i32, i32* %3, align 16
  %19 = icmp eq i32 %18, -1
  %20 = select i1 %17, i1 true, i1 %19
  br i1 %20, label %158, label %21

21:                                               ; preds = %0, %70
  %22 = call nonnull align 8 dereferenceable(16) %"class.std::basic_istream"* @_ZNSirsERi(%"class.std::basic_istream"* nonnull align 8 dereferenceable(16) @_ZSt3cin, i32* nonnull align 4 dereferenceable(4) %4)
  %23 = load i32, i32* %4, align 4, !tbaa !18
  %24 = icmp eq i32 %23, 0
  br i1 %24, label %42, label %31

25:                                               ; preds = %31
  %26 = trunc i64 %33 to i32
  %27 = icmp slt i32 %26, 2
  br i1 %27, label %42, label %28

28:                                               ; preds = %25
  %29 = and i64 %32, 4294967295
  %30 = and i64 %33, 4294967295
  br label %90

31:                                               ; preds = %21, %31
  %32 = phi i64 [ %33, %31 ], [ 1, %21 ]
  %33 = add nuw nsw i64 %32, 1
  %34 = getelementptr inbounds [15 x i32], [15 x i32]* %1, i64 0, i64 %33
  %35 = call nonnull align 8 dereferenceable(16) %"class.std::basic_istream"* @_ZNSirsERi(%"class.std::basic_istream"* nonnull align 8 dereferenceable(16) @_ZSt3cin, i32* nonnull align 4 dereferenceable(4) %34)
  %36 = load i32, i32* %34, align 4, !tbaa !18
  %37 = icmp eq i32 %36, 0
  br i1 %37, label %25, label %31, !llvm.loop !19

38:                                               ; preds = %145, %138
  %39 = phi i32 [ %140, %138 ], [ %155, %145 ]
  %40 = add nuw nsw i64 %92, 1
  %41 = icmp eq i64 %96, %29
  br i1 %41, label %42, label %90, !llvm.loop !21

42:                                               ; preds = %38, %21, %25
  %43 = phi i32 [ 0, %25 ], [ 0, %21 ], [ %39, %38 ]
  %44 = call nonnull align 8 dereferenceable(8) %"class.std::basic_ostream"* @_ZNSolsEi(%"class.std::basic_ostream"* nonnull align 8 dereferenceable(8) @_ZSt4cout, i32 %43)
  %45 = bitcast %"class.std::basic_ostream"* %44 to i8**
  %46 = load i8*, i8** %45, align 8, !tbaa !5
  %47 = getelementptr i8, i8* %46, i64 -24
  %48 = bitcast i8* %47 to i64*
  %49 = load i64, i64* %48, align 8
  %50 = bitcast %"class.std::basic_ostream"* %44 to i8*
  %51 = add nsw i64 %49, 240
  %52 = getelementptr inbounds i8, i8* %50, i64 %51
  %53 = bitcast i8* %52 to %"class.std::ctype"**
  %54 = load %"class.std::ctype"*, %"class.std::ctype"** %53, align 8, !tbaa !22
  %55 = icmp eq %"class.std::ctype"* %54, null
  br i1 %55, label %56, label %57

56:                                               ; preds = %42
  call void @_ZSt16__throw_bad_castv() #9
  unreachable

57:                                               ; preds = %42
  %58 = getelementptr inbounds %"class.std::ctype", %"class.std::ctype"* %54, i64 0, i32 8
  %59 = load i8, i8* %58, align 8, !tbaa !25
  %60 = icmp eq i8 %59, 0
  br i1 %60, label %64, label %61

61:                                               ; preds = %57
  %62 = getelementptr inbounds %"class.std::ctype", %"class.std::ctype"* %54, i64 0, i32 9, i64 10
  %63 = load i8, i8* %62, align 1, !tbaa !27
  br label %70

64:                                               ; preds = %57
  call void @_ZNKSt5ctypeIcE13_M_widen_initEv(%"class.std::ctype"* nonnull align 8 dereferenceable(570) %54)
  %65 = bitcast %"class.std::ctype"* %54 to i8 (%"class.std::ctype"*, i8)***
  %66 = load i8 (%"class.std::ctype"*, i8)**, i8 (%"class.std::ctype"*, i8)*** %65, align 8, !tbaa !5
  %67 = getelementptr inbounds i8 (%"class.std::ctype"*, i8)*, i8 (%"class.std::ctype"*, i8)** %66, i64 6
  %68 = load i8 (%"class.std::ctype"*, i8)*, i8 (%"class.std::ctype"*, i8)** %67, align 8
  %69 = call signext i8 %68(%"class.std::ctype"* nonnull align 8 dereferenceable(570) %54, i8 signext 10)
  br label %70

70:                                               ; preds = %61, %64
  %71 = phi i8 [ %63, %61 ], [ %69, %64 ]
  %72 = call nonnull align 8 dereferenceable(8) %"class.std::basic_ostream"* @_ZNSo3putEc(%"class.std::basic_ostream"* nonnull align 8 dereferenceable(8) %44, i8 signext %71)
  %73 = call nonnull align 8 dereferenceable(8) %"class.std::basic_ostream"* @_ZNSo5flushEv(%"class.std::basic_ostream"* nonnull align 8 dereferenceable(8) %72)
  %74 = call nonnull align 8 dereferenceable(16) %"class.std::basic_istream"* @_ZNSirsERi(%"class.std::basic_istream"* nonnull align 8 dereferenceable(16) @_ZSt3cin, i32* nonnull align 4 dereferenceable(4) %3)
  %75 = bitcast %"class.std::basic_istream"* %74 to i8**
  %76 = load i8*, i8** %75, align 8, !tbaa !5
  %77 = getelementptr i8, i8* %76, i64 -24
  %78 = bitcast i8* %77 to i64*
  %79 = load i64, i64* %78, align 8
  %80 = bitcast %"class.std::basic_istream"* %74 to i8*
  %81 = add nsw i64 %79, 32
  %82 = getelementptr inbounds i8, i8* %80, i64 %81
  %83 = bitcast i8* %82 to i32*
  %84 = load i32, i32* %83, align 8, !tbaa !8
  %85 = and i32 %84, 5
  %86 = icmp ne i32 %85, 0
  %87 = load i32, i32* %3, align 16
  %88 = icmp eq i32 %87, -1
  %89 = select i1 %86, i1 true, i1 %88
  br i1 %89, label %158, label %21, !llvm.loop !28

90:                                               ; preds = %38, %28
  %91 = phi i64 [ 0, %28 ], [ %96, %38 ]
  %92 = phi i64 [ 1, %28 ], [ %40, %38 ]
  %93 = phi i32 [ 0, %28 ], [ %39, %38 ]
  %94 = xor i64 %91, -1
  %95 = add nsw i64 %30, %94
  %96 = add nuw nsw i64 %91, 1
  %97 = getelementptr inbounds [15 x i32], [15 x i32]* %1, i64 0, i64 %91
  %98 = load i32, i32* %97, align 4, !tbaa !18
  %99 = shl nsw i32 %98, 1
  %100 = icmp ult i64 %95, 8
  br i1 %100, label %142, label %101

101:                                              ; preds = %90
  %102 = and i64 %95, -8
  %103 = add i64 %92, %102
  %104 = insertelement <4 x i32> <i32 poison, i32 0, i32 0, i32 0>, i32 %93, i32 0
  %105 = insertelement <4 x i32> poison, i32 %98, i32 0
  %106 = shufflevector <4 x i32> %105, <4 x i32> poison, <4 x i32> zeroinitializer
  %107 = insertelement <4 x i32> poison, i32 %98, i32 0
  %108 = shufflevector <4 x i32> %107, <4 x i32> poison, <4 x i32> zeroinitializer
  %109 = insertelement <4 x i32> poison, i32 %99, i32 0
  %110 = shufflevector <4 x i32> %109, <4 x i32> poison, <4 x i32> zeroinitializer
  %111 = insertelement <4 x i32> poison, i32 %99, i32 0
  %112 = shufflevector <4 x i32> %111, <4 x i32> poison, <4 x i32> zeroinitializer
  br label %113

113:                                              ; preds = %113, %101
  %114 = phi i64 [ 0, %101 ], [ %136, %113 ]
  %115 = phi <4 x i32> [ %104, %101 ], [ %134, %113 ]
  %116 = phi <4 x i32> [ zeroinitializer, %101 ], [ %135, %113 ]
  %117 = add i64 %92, %114
  %118 = getelementptr inbounds [15 x i32], [15 x i32]* %1, i64 0, i64 %117
  %119 = bitcast i32* %118 to <4 x i32>*
  %120 = load <4 x i32>, <4 x i32>* %119, align 4, !tbaa !18
  %121 = getelementptr inbounds i32, i32* %118, i64 4
  %122 = bitcast i32* %121 to <4 x i32>*
  %123 = load <4 x i32>, <4 x i32>* %122, align 4, !tbaa !18
  %124 = shl nsw <4 x i32> %120, <i32 1, i32 1, i32 1, i32 1>
  %125 = shl nsw <4 x i32> %123, <i32 1, i32 1, i32 1, i32 1>
  %126 = icmp eq <4 x i32> %106, %124
  %127 = icmp eq <4 x i32> %108, %125
  %128 = icmp eq <4 x i32> %120, %110
  %129 = icmp eq <4 x i32> %123, %112
  %130 = select <4 x i1> %126, <4 x i1> <i1 true, i1 true, i1 true, i1 true>, <4 x i1> %128
  %131 = select <4 x i1> %127, <4 x i1> <i1 true, i1 true, i1 true, i1 true>, <4 x i1> %129
  %132 = zext <4 x i1> %130 to <4 x i32>
  %133 = zext <4 x i1> %131 to <4 x i32>
  %134 = add <4 x i32> %115, %132
  %135 = add <4 x i32> %116, %133
  %136 = add nuw i64 %114, 8
  %137 = icmp eq i64 %136, %102
  br i1 %137, label %138, label %113, !llvm.loop !29

138:                                              ; preds = %113
  %139 = add <4 x i32> %135, %134
  %140 = call i32 @llvm.vector.reduce.add.v4i32(<4 x i32> %139)
  %141 = icmp eq i64 %95, %102
  br i1 %141, label %38, label %142

142:                                              ; preds = %90, %138
  %143 = phi i64 [ %92, %90 ], [ %103, %138 ]
  %144 = phi i32 [ %93, %90 ], [ %140, %138 ]
  br label %145

145:                                              ; preds = %142, %145
  %146 = phi i64 [ %156, %145 ], [ %143, %142 ]
  %147 = phi i32 [ %155, %145 ], [ %144, %142 ]
  %148 = getelementptr inbounds [15 x i32], [15 x i32]* %1, i64 0, i64 %146
  %149 = load i32, i32* %148, align 4, !tbaa !18
  %150 = shl nsw i32 %149, 1
  %151 = icmp eq i32 %98, %150
  %152 = icmp eq i32 %149, %99
  %153 = select i1 %151, i1 true, i1 %152
  %154 = zext i1 %153 to i32
  %155 = add nsw i32 %147, %154
  %156 = add nuw nsw i64 %146, 1
  %157 = icmp eq i64 %156, %30
  br i1 %157, label %38, label %145, !llvm.loop !31

158:                                              ; preds = %70, %0
  call void @llvm.lifetime.end.p0i8(i64 60, i8* nonnull %2) #8
  ret i32 0
}

; Function Attrs: argmemonly mustprogress nofree nosync nounwind willreturn
declare void @llvm.lifetime.start.p0i8(i64 immarg, i8* nocapture) #4

declare nonnull align 8 dereferenceable(16) %"class.std::basic_istream"* @_ZNSirsERi(%"class.std::basic_istream"* nonnull align 8 dereferenceable(16), i32* nonnull align 4 dereferenceable(4)) local_unnamed_addr #0

; Function Attrs: argmemonly mustprogress nofree nosync nounwind willreturn
declare void @llvm.lifetime.end.p0i8(i64 immarg, i8* nocapture) #4

declare nonnull align 8 dereferenceable(8) %"class.std::basic_ostream"* @_ZNSolsEi(%"class.std::basic_ostream"* nonnull align 8 dereferenceable(8), i32) local_unnamed_addr #0

declare nonnull align 8 dereferenceable(8) %"class.std::basic_ostream"* @_ZNSo3putEc(%"class.std::basic_ostream"* nonnull align 8 dereferenceable(8), i8 signext) local_unnamed_addr #0

declare nonnull align 8 dereferenceable(8) %"class.std::basic_ostream"* @_ZNSo5flushEv(%"class.std::basic_ostream"* nonnull align 8 dereferenceable(8)) local_unnamed_addr #0

; Function Attrs: noreturn
declare void @_ZSt16__throw_bad_castv() local_unnamed_addr #5

declare void @_ZNKSt5ctypeIcE13_M_widen_initEv(%"class.std::ctype"* nonnull align 8 dereferenceable(570)) local_unnamed_addr #0

; Function Attrs: sspstrong uwtable
define internal void @_GLOBAL__sub_I_1447.cpp() #6 section ".text.startup" {
  tail call void @_ZNSt8ios_base4InitC1Ev(%"class.std::ios_base::Init"* nonnull align 1 dereferenceable(1) @_ZStL8__ioinit)
  %1 = tail call i32 @__cxa_atexit(void (i8*)* bitcast (void (%"class.std::ios_base::Init"*)* @_ZNSt8ios_base4InitD1Ev to void (i8*)*), i8* getelementptr inbounds (%"class.std::ios_base::Init", %"class.std::ios_base::Init"* @_ZStL8__ioinit, i64 0, i32 0), i8* nonnull @__dso_handle) #8
  ret void
}

; Function Attrs: nofree nosync nounwind readnone willreturn
declare i32 @llvm.vector.reduce.add.v4i32(<4 x i32>) #7


!llvm.module.flags = !{!0, !1, !2, !3}
!llvm.ident = !{!4}

!0 = !{i32 1, !"wchar_size", i32 4}
!1 = !{i32 7, !"PIC Level", i32 2}
!2 = !{i32 7, !"PIE Level", i32 2}
!3 = !{i32 7, !"uwtable", i32 1}
!4 = !{!"clang version 13.0.0"}
!5 = !{!6, !6, i64 0}
!6 = !{!"vtable pointer", !7, i64 0}
!7 = !{!"Simple C++ TBAA"}
!8 = !{!9, !13, i64 32}
!9 = !{!"_ZTSSt8ios_base", !10, i64 8, !10, i64 16, !12, i64 24, !13, i64 28, !13, i64 32, !14, i64 40, !15, i64 48, !11, i64 64, !16, i64 192, !14, i64 200, !17, i64 208}
!10 = !{!"long", !11, i64 0}
!11 = !{!"omnipotent char", !7, i64 0}
!12 = !{!"_ZTSSt13_Ios_Fmtflags", !11, i64 0}
!13 = !{!"_ZTSSt12_Ios_Iostate", !11, i64 0}
!14 = !{!"any pointer", !11, i64 0}
!15 = !{!"_ZTSNSt8ios_base6_WordsE", !14, i64 0, !10, i64 8}
!16 = !{!"int", !11, i64 0}
!17 = !{!"_ZTSSt6locale", !14, i64 0}
!18 = !{!16, !16, i64 0}
!19 = distinct !{!19, !20}
!20 = !{!"llvm.loop.mustprogress"}
!21 = distinct !{!21, !20}
!22 = !{!23, !14, i64 240}
!23 = !{!"_ZTSSt9basic_iosIcSt11char_traitsIcEE", !14, i64 216, !11, i64 224, !24, i64 225, !14, i64 232, !14, i64 240, !14, i64 248, !14, i64 256}
!24 = !{!"bool", !11, i64 0}
!25 = !{!26, !11, i64 56}
!26 = !{!"_ZTSSt5ctypeIcE", !14, i64 16, !24, i64 24, !14, i64 32, !14, i64 40, !14, i64 48, !11, i64 56, !11, i64 57, !11, i64 313, !11, i64 569}
!27 = !{!11, !11, i64 0}
!28 = distinct !{!28, !20}
!29 = distinct !{!29, !20, !30}
!30 = !{!"llvm.loop.isvectorized", i32 1}
!31 = distinct !{!31, !20, !32, !30}
!32 = !{!"llvm.loop.unroll.runtime.disable"}
